target datalayout = "e-m:e-p270:32:32-p271:32:32-p272:64:64-i64:64-i128:128-f80:128-n8:16:32:64-S128"
target triple = "x86_64-unknown-linux-gnu"

@_ZN3net18SourceAddressTokenC1Ev = dso_local unnamed_addr alias void (ptr), ptr @_ZN3net18SourceAddressTokenC2Ev

; Function Attrs: mustprogress uwtable
define linkonce_odr dso_local void @_ZN6google8protobuf5Arena3OwnIN3net18SourceAddressTokenEEEvPT_(ptr noundef nonnull align 8 dereferenceable(136) %this, ptr noundef %object) #1 comdat align 2 {
entry:
  %this.addr.i = alloca ptr, align 8
  %object.addr.i = alloca ptr, align 8
  %this.addr = alloca ptr, align 8
  %object.addr = alloca ptr, align 8
  store ptr %this, ptr %this.addr, align 8
  store ptr %object, ptr %object.addr, align 8
  %this1 = load ptr, ptr %this.addr, align 8
  %0 = load ptr, ptr %object.addr, align 8
  store ptr %this1, ptr %this.addr.i, align 8
  store ptr %0, ptr %object.addr.i, align 8
  %this1.i = load ptr, ptr %this.addr.i, align 8
  %1 = load ptr, ptr %object.addr.i, align 8
  %cmp.i = icmp ne ptr %1, null
  br i1 %cmp.i, label %if.then.i, label %_ZN6google8protobuf5Arena11OwnInternalIN3net18SourceAddressTokenEEEvPT_NS0_8internal17integral_constantIbLb0EEE.exit

if.then.i:                                        ; preds = %entry
  %2 = load ptr, ptr %object.addr.i, align 8
  call void @_ZN6google8protobuf5Arena11AddListNodeEPvPFvS2_E(ptr noundef nonnull align 8 dereferenceable(136) %this1.i, ptr noundef %2, ptr noundef @_ZN6google8protobuf8internal19arena_delete_objectIN3net18SourceAddressTokenEEEvPv)
  br label %_ZN6google8protobuf5Arena11OwnInternalIN3net18SourceAddressTokenEEEvPT_NS0_8internal17integral_constantIbLb0EEE.exit

_ZN6google8protobuf5Arena11OwnInternalIN3net18SourceAddressTokenEEEvPT_NS0_8internal17integral_constantIbLb0EEE.exit: ; preds = %if.then.i, %entry
  ret void
}

; Function Attrs: mustprogress uwtable
define dso_local noundef ptr @_ZNK3net18SourceAddressToken3NewEPN6google8protobuf5ArenaE(ptr noundef nonnull align 8 dereferenceable(56) %this, ptr noundef %arena) unnamed_addr #1 align 2 personality ptr @__gxx_personality_v0 {
entry:
  %this.addr = alloca ptr, align 8
  %arena.addr = alloca ptr, align 8
  %n = alloca ptr, align 8
  %exn.slot = alloca ptr, align 8
  %ehselector.slot = alloca i32, align 4
  store ptr %this, ptr %this.addr, align 8
  store ptr %arena, ptr %arena.addr, align 8
  %call = call noalias noundef nonnull ptr @_Znwm(i64 noundef 56) #13
  invoke void @_ZN3net18SourceAddressTokenC1Ev(ptr noundef nonnull align 8 dereferenceable(56) %call)
          to label %invoke.cont unwind label %lpad

invoke.cont:                                      ; preds = %entry
  store ptr %call, ptr %n, align 8
  %0 = load ptr, ptr %arena.addr, align 8
  %cmp = icmp ne ptr %0, null
  br i1 %cmp, label %if.then, label %if.end

if.then:                                          ; preds = %invoke.cont
  %1 = load ptr, ptr %arena.addr, align 8
  %2 = load ptr, ptr %n, align 8
  call void @_ZN6google8protobuf5Arena3OwnIN3net18SourceAddressTokenEEEvPT_(ptr noundef nonnull align 8 dereferenceable(136) %1, ptr noundef %2)
  br label %if.end

lpad:                                             ; preds = %entry
  %3 = landingpad { ptr, i32 }
          cleanup
  %4 = extractvalue { ptr, i32 } %3, 0
  store ptr %4, ptr %exn.slot, align 8
  %5 = extractvalue { ptr, i32 } %3, 1
  store i32 %5, ptr %ehselector.slot, align 4
  call void @_ZdlPv(ptr noundef %call) #14
  br label %eh.resume

if.end:                                           ; preds = %if.then, %invoke.cont
  %6 = load ptr, ptr %n, align 8
  ret ptr %6

eh.resume:                                        ; preds = %lpad
  %exn = load ptr, ptr %exn.slot, align 8
  %sel = load i32, ptr %ehselector.slot, align 4
  %lpad.val = insertvalue { ptr, i32 } poison, ptr %exn, 0
  %lpad.val2 = insertvalue { ptr, i32 } %lpad.val, i32 %sel, 1
  resume { ptr, i32 } %lpad.val2
}